target datalayout = "e-m:e-p270:32:32-p271:32:32-p272:64:64-i64:64-i128:128-f80:128-n8:16:32:64-S128"
target triple = "x86_64-unknown-linux-gnu"

%struct.BDRVQEDState = type { ptr, %struct.QEDHeader, %struct.CoMutex, ptr, %struct.L2TableCache, i32, i32, i32, i32, i64, ptr, %struct.CoQueue, i8, ptr }
%struct.QEDHeader = type { i32, i32, i32, i32, i64, i64, i64, i64, i64, i32, i32 }
%struct.CoMutex = type { i32, ptr, %struct.anon, %struct.anon, i32, i32, ptr }
%struct.anon = type { ptr }
%struct.L2TableCache = type { %union.anon, i32 }
%union.anon = type { %struct.QTailQLink }
%struct.QTailQLink = type { ptr, ptr }
%struct.CoQueue = type { %struct.anon.0 }
%struct.anon.0 = type { ptr, ptr }

; Function Attrs: nounwind sspstrong uwtable
define dso_local i32 @qed_read_l1_table_sync(ptr noundef %s) #0 {
entry:
  %s.addr = alloca ptr, align 8
  store ptr %s, ptr %s.addr, align 8
  %0 = load ptr, ptr %s.addr, align 8
  %1 = load ptr, ptr %s.addr, align 8
  %header = getelementptr inbounds %struct.BDRVQEDState, ptr %1, i32 0, i32 1
  %l1_table_offset = getelementptr inbounds %struct.QEDHeader, ptr %header, i32 0, i32 7
  %2 = load i64, ptr %l1_table_offset, align 8
  %3 = load ptr, ptr %s.addr, align 8
  %l1_table = getelementptr inbounds %struct.BDRVQEDState, ptr %3, i32 0, i32 3
  %4 = load ptr, ptr %l1_table, align 8
  %call = call i32 @qed_read_table(ptr noundef %0, i64 noundef %2, ptr noundef %4)
  ret i32 %call
}