; Function Attrs: nounwind sspstrong uwtable
define dso_local range(i32 -2147483648, 1) i32 @qed_read_l1_table_sync(ptr noundef %s) #0 {
entry:
  %l1_table_offset = getelementptr inbounds nuw i8, ptr %s, i64 48
  %0 = load i64, ptr %l1_table_offset, align 8
  %l1_table = getelementptr inbounds nuw i8, ptr %s, i64 120
  %1 = load ptr, ptr %l1_table, align 8
  %call = tail call i32 @qed_read_table(ptr noundef %s, i64 noundef %0, ptr noundef %1)
  ret i32 %call
}